; Function Attrs: mustprogress nofree norecurse nosync nounwind willreturn memory(argmem: readwrite) uwtable
define void @_ZNK3g2o24RobustKernelGemanMcClure9robustifyEdRN5Eigen6MatrixIdLi3ELi1ELi0ELi3ELi1EEE(ptr noundef nonnull readonly align 8 captures(none) dereferenceable(16) %0, double noundef %1, ptr noundef nonnull writeonly align 8 captures(none) dereferenceable(24) initializes((0, 24)) %2) unnamed_addr #9 align 2 personality ptr @__gxx_personality_v0 {
  %4 = getelementptr inbounds nuw i8, ptr %0, i64 8
  %5 = load double, ptr %4, align 8, !tbaa !21
  %6 = fadd double %1, %5
  %7 = fdiv double 1.000000e+00, %6
  %8 = fmul double %1, %5
  %9 = fmul double %8, %7
  store double %9, ptr %2, align 8, !tbaa !24
  %10 = load double, ptr %4, align 8, !tbaa !21
  %11 = fmul double %10, %10
  %12 = fmul double %7, %11
  %13 = fmul double %7, %12
  %14 = getelementptr inbounds nuw i8, ptr %2, i64 8
  store double %13, ptr %14, align 8, !tbaa !24
  %15 = fmul double %13, -2.000000e+00
  %16 = fmul double %7, %15
  %17 = getelementptr inbounds nuw i8, ptr %2, i64 16
  store double %16, ptr %17, align 8, !tbaa !24
  ret void
}